; Function Attrs: mustprogress nounwind uwtable
define dso_local void @_ZN4llvm6detailmlERKNS0_16SlowDynamicAPIntEl(ptr dead_on_unwind noalias writable sret(%"class.llvm::detail::SlowDynamicAPInt") align 8 %0, ptr noundef nonnull align 8 dereferenceable(16) %1, i64 noundef %2) local_unnamed_addr #1 {
  %4 = alloca %"class.llvm::APInt", align 8
  %5 = alloca %"struct.std::_Mem_fn", align 8
  %6 = alloca %"class.llvm::detail::SlowDynamicAPInt", align 8
  call void @_ZN4llvm6detail16SlowDynamicAPIntC1El(ptr noundef nonnull align 8 dereferenceable(16) %6, i64 noundef %2) #9
  call void @llvm.lifetime.start.p0(i64 16, ptr nonnull %4)
  call void @llvm.lifetime.start.p0(i64 16, ptr nonnull %5)
  store i64 ptrtoint (ptr @_ZNK4llvm5APInt7smul_ovERKS0_Rb to i64), ptr %5, align 8, !noalias !34
  %7 = getelementptr inbounds nuw i8, ptr %5, i64 8
  store i64 0, ptr %7, align 8, !noalias !34
  %8 = ptrtoint ptr %5 to i64
  call void @_Z25runOpWithExpandOnOverflowRKN4llvm5APIntES2_NS_12function_refIFS0_S2_S2_RbEEE(ptr dead_on_unwind nonnull writable sret(%"class.llvm::APInt") align 8 %4, ptr noundef nonnull align 8 dereferenceable(12) %1, ptr noundef nonnull align 8 dereferenceable(12) %6, ptr nonnull @_ZN4llvm12function_refIFNS_5APIntERKS1_S3_RbEE11callback_fnISt7_Mem_fnIMS1_KFS1_S3_S4_EEEES1_lS3_S3_S4_, i64 %8), !noalias !34
  call void @_ZN4llvm6detail16SlowDynamicAPIntC1ERKNS_5APIntE(ptr noundef nonnull align 8 dereferenceable(16) %0, ptr noundef nonnull align 8 dereferenceable(12) %4) #9
  %9 = getelementptr inbounds nuw i8, ptr %4, i64 8
  %10 = load i32, ptr %9, align 8, !noalias !34
  %11 = icmp ugt i32 %10, 64
  br i1 %11, label %12, label %_ZNK4llvm6detail16SlowDynamicAPIntmlERKS1_.exit

12:                                               ; preds = %3
  %13 = load ptr, ptr %4, align 8, !noalias !34
  %14 = icmp eq ptr %13, null
  br i1 %14, label %_ZNK4llvm6detail16SlowDynamicAPIntmlERKS1_.exit, label %15

15:                                               ; preds = %12
  call void @_ZdaPv(ptr noundef nonnull %13) #10
  br label %_ZNK4llvm6detail16SlowDynamicAPIntmlERKS1_.exit

_ZNK4llvm6detail16SlowDynamicAPIntmlERKS1_.exit:  ; preds = %3, %12, %15
  call void @llvm.lifetime.end.p0(i64 16, ptr nonnull %4)
  call void @llvm.lifetime.end.p0(i64 16, ptr nonnull %5)
  %16 = getelementptr inbounds nuw i8, ptr %6, i64 8
  %17 = load i32, ptr %16, align 8
  %18 = icmp ugt i32 %17, 64
  br i1 %18, label %19, label %_ZN4llvm6detail16SlowDynamicAPIntD2Ev.exit

19:                                               ; preds = %_ZNK4llvm6detail16SlowDynamicAPIntmlERKS1_.exit
  %20 = load ptr, ptr %6, align 8
  %21 = icmp eq ptr %20, null
  br i1 %21, label %_ZN4llvm6detail16SlowDynamicAPIntD2Ev.exit, label %22

22:                                               ; preds = %19
  call void @_ZdaPv(ptr noundef nonnull %20) #10
  br label %_ZN4llvm6detail16SlowDynamicAPIntD2Ev.exit

_ZN4llvm6detail16SlowDynamicAPIntD2Ev.exit:       ; preds = %_ZNK4llvm6detail16SlowDynamicAPIntmlERKS1_.exit, %19, %22
  ret void
}